(dp0
S'METTS MARK'
p1
(dp2
S'to_messages'
p3
I807
sS'money_ratio'
p4
F0.26
sS'deferral_payments'
p5
S'NaN'
p6
sS'expenses'
p7
I94299
sS'poi'
p8
I00
sS'deferred_income'
p9
g6
sS'poi_ratio_messages_squared'
p10
F0.7856404958677685
sS'email_address'
p11
S'mark.metts@enron.com'
p12
sS'long_term_incentive'
p13
g6
sS'restricted_stock_deferred'
p14
g6
sS'poi_ratio_messages'
p15
F0.8863636363636364
sS'shared_receipt_with_poi'
p16
I702
sS'loan_advances'
p17
g6
sS'from_messages'
p18
I29
sS'other'
p19
I1740
sS'director_fees'
p20
g6
sS'bonus'
p21
I600000
sS'total_stock_value'
p22
I585062
sS'from_poi_to_this_person'
p23
I38
sS'from_this_person_to_poi'
p24
I1
sS'restricted_stock'
p25
I585062
sS'restricted_stock_ratio'
p26
F1.0
sS'salary'
p27
I365788
sS'total_payments'
p28
I1061827
sS'exercised_stock_options'
p29
g6
ssS'BAXTER JOHN C'
p30
(dp31
g3
g6
sg4
F0.04
sg5
I1295738
sg7
I11200
sg8
I00
sg9
I-1386055
sg11
g6
sg13
I1586055
sg14
g6
sg15
S'NaN'
p32
sg16
g6
sg17
g6
sg18
g6
sg19
I2660303
sg20
g6
sg21
I1200000
sg22
I10623258
sg23
g6
sg24
g6
sg25
I3942714
sg26
F0.37
sg27
I267102
sg28
I5634343
sg29
I6680544
ssS'ELLIOTT STEVEN'
p33
(dp34
g3
g6
sg4
F0.46
sg5
g6
sg7
I78552
sg8
I00
sg9
I-400729
sg11
S'steven.elliott@enron.com'
p35
sg13
g6
sg14
g6
sg15
g32
sg16
g6
sg17
g6
sg18
g6
sg19
I12961
sg20
g6
sg21
I350000
sg22
I6678735
sg23
g6
sg24
g6
sg25
I1788391
sg26
F0.27
sg27
I170941
sg28
I211725
sg29
I4890344
ssS'CORDES WILLIAM R'
p36
(dp37
g3
I764
sg4
Fnan
sg5
g6
sg7
g6
sg8
I00
sg9
g6
sg10
F0.007678818152832394
sg11
S'bill.cordes@enron.com'
p38
sg13
g6
sg14
g6
sg15
F0.08762886597938144
sg16
I58
sg17
g6
sg18
I12
sg19
g6
sg20
g6
sg21
g6
sg22
I1038185
sg23
I10
sg24
I0
sg25
I386335
sg26
F0.37
sg27
g6
sg28
g6
sg29
I651850
ssS'HANNON KEVIN P'
p39
(dp40
g3
I1045
sg4
F0.14
sg5
g6
sg7
I34039
sg8
I01
sg9
I-3117011
sg10
F1.0205314290788485
sg11
S'kevin.hannon@enron.com'
p41
sg13
I1617011
sg14
g6
sg15
F1.0102135561745589
sg16
I1035
sg17
g6
sg18
I32
sg19
I11350
sg20
g6
sg21
I1500000
sg22
I6391065
sg23
I32
sg24
I21
sg25
I853064
sg26
F0.13
sg27
I243293
sg28
I288682
sg29
I5538001
ssS'MORDAUNT KRISTINA M'
p42
(dp43
g3
g6
sg4
F0.13
sg5
g6
sg7
I35018
sg8
I00
sg9
g6
sg11
S'kristina.mordaunt@enron.com'
p44
sg13
g6
sg14
g6
sg15
g32
sg16
g6
sg17
g6
sg18
g6
sg19
I1411
sg20
g6
sg21
I325000
sg22
I208510
sg23
g6
sg24
g6
sg25
I208510
sg26
F1.0
sg27
I267093
sg28
I628522
sg29
g6
ssS'MEYER ROCKFORD G'
p45
(dp46
g3
I232
sg4
Fnan
sg5
I1848227
sg7
g6
sg8
I00
sg9
g6
sg10
F0.007159763313609468
sg11
S'rockford.meyer@enron.com'
p47
sg13
g6
sg14
g6
sg15
F0.08461538461538462
sg16
I22
sg17
g6
sg18
I28
sg19
g6
sg20
g6
sg21
g6
sg22
I955873
sg23
I0
sg24
I0
sg25
I462384
sg26
F0.48
sg27
g6
sg28
I1848227
sg29
I493489
ssS'MCMAHON JEFFREY'
p48
(dp49
g3
I2355
sg4
F0.37
sg5
g6
sg7
I137108
sg8
I00
sg9
g6
sg10
F0.9256954261466411
sg11
S'jeffrey.mcmahon@enron.com'
p50
sg13
I694862
sg14
g6
sg15
F0.9621306699958385
sg16
I2228
sg17
g6
sg18
I48
sg19
I297353
sg20
g6
sg21
I2600000
sg22
I1662855
sg23
I58
sg24
I26
sg25
I558801
sg26
F0.34
sg27
I370448
sg28
I4099771
sg29
I1104054
ssS'HORTON STANLEY C'
p51
(dp52
g3
I2350
sg4
Fnan
sg5
I3131860
sg7
g6
sg8
I00
sg9
g6
sg10
F0.10955848584556585
sg11
S'stanley.horton@enron.com'
p53
sg13
g6
sg14
g6
sg15
F0.33099620216184633
sg16
I1074
sg17
g6
sg18
I1073
sg19
g6
sg20
g6
sg21
g6
sg22
I7256648
sg23
I44
sg24
I15
sg25
I2046079
sg26
F0.28
sg27
g6
sg28
I3131860
sg29
I5210569
ssS'PIPER GREGORY F'
p54
(dp55
g3
I1238
sg4
F0.22
sg5
I1130036
sg7
I43057
sg8
I00
sg9
I-33333
sg10
F0.3397452617751924
sg11
S'greg.piper@enron.com'
p56
sg13
g6
sg14
I-409554
sg15
F0.5828767123287671
sg16
I742
sg17
g6
sg18
I222
sg19
I778
sg20
g6
sg21
I400000
sg22
I880290
sg23
I61
sg24
I48
sg25
I409554
sg26
F0.47
sg27
I197091
sg28
I1737629
sg29
I880290
ssS'HUMPHREY GENE E'
p57
(dp58
g3
I128
sg4
F0.04
sg5
I2964506
sg7
I4994
sg8
I00
sg9
g6
sg10
F1.0138406658739596
sg11
S'gene.humphrey@enron.com'
p59
sg13
g6
sg14
g6
sg15
F1.006896551724138
sg16
I119
sg17
g6
sg18
I17
sg19
g6
sg20
g6
sg21
g6
sg22
I2282768
sg23
I10
sg24
I17
sg25
g6
sg26
Fnan
sg27
I130724
sg28
I3100224
sg29
I2282768
ssS'UMANOFF ADAM S'
p60
(dp61
g3
I111
sg4
F0.18
sg5
g6
sg7
I53122
sg8
I00
sg9
g6
sg10
F0.168799951925966
sg11
S'adam.umanoff@enron.com'
p62
sg13
g6
sg14
g6
sg15
F0.4108527131782946
sg16
I41
sg17
g6
sg18
I18
sg19
g6
sg20
g6
sg21
I788750
sg22
g6
sg23
I12
sg24
I0
sg25
g6
sg26
Fnan
sg27
I288589
sg28
I1130461
sg29
g6
ssS'BLACHMAN JEREMY M'
p63
(dp64
g3
I2475
sg4
F0.34
sg5
g6
sg7
I84208
sg8
I00
sg9
g6
sg10
F0.893704739584586
sg11
S'jeremy.blachman@enron.com'
p65
sg13
I831809
sg14
g6
sg15
F0.9453595821615106
sg16
I2326
sg17
g6
sg18
I14
sg19
I272
sg20
g6
sg21
I850000
sg22
I954354
sg23
I25
sg24
I2
sg25
I189041
sg26
F0.2
sg27
I248546
sg28
I2014835
sg29
I765313
ssS'SUNDE MARTIN'
p66
(dp67
g3
I2647
sg4
Fnan
sg5
g6
sg7
g6
sg8
I00
sg9
g6
sg10
F0.9485381577076594
sg11
S'marty.sunde@enron.com'
p68
sg13
I476451
sg14
g6
sg15
F0.9739292364990689
sg16
I2565
sg17
g6
sg18
I38
sg19
I111122
sg20
g6
sg21
I700000
sg22
I698920
sg23
I37
sg24
I13
sg25
I698920
sg26
F1.0
sg27
I257486
sg28
I1545059
sg29
g6
ssS'GIBBS DANA R'
p69
(dp70
g3
I169
sg4
Fnan
sg5
I504610
sg7
g6
sg8
I00
sg9
g6
sg10
F0.016147248252495347
sg11
S'dana.gibbs@enron.com'
p71
sg13
I461912
sg14
g6
sg15
F0.1270718232044199
sg16
I23
sg17
g6
sg18
I12
sg19
g6
sg20
g6
sg21
g6
sg22
I2218275
sg23
I0
sg24
I0
sg25
g6
sg26
Fnan
sg27
g6
sg28
I966522
sg29
I2218275
ssS'LOWRY CHARLES P'
p72
(dp73
g3
g6
sg4
Fnan
sg5
g6
sg7
g6
sg8
I00
sg9
g6
sg11
g6
sg13
g6
sg14
I-153686
sg15
g32
sg16
g6
sg17
g6
sg18
g6
sg19
g6
sg20
g6
sg21
g6
sg22
I372205
sg23
g6
sg24
g6
sg25
I153686
sg26
F0.41
sg27
g6
sg28
g6
sg29
I372205
ssS'COLWELL WESLEY'
p74
(dp75
g3
I1758
sg4
F0.06
sg5
I27610
sg7
I16514
sg8
I01
sg9
I-144062
sg10
F0.5916501588095041
sg11
S'wes.colwell@enron.com'
p76
sg13
g6
sg14
g6
sg15
F0.7691879866518354
sg16
I1132
sg17
g6
sg18
I40
sg19
I101740
sg20
g6
sg21
I1200000
sg22
I698242
sg23
I240
sg24
I11
sg25
I698242
sg26
F1.0
sg27
I288542
sg28
I1490344
sg29
g6
ssS'MULLER MARK S'
p77
(dp78
g3
I136
sg4
Fnan
sg5
I842924
sg7
g6
sg8
I00
sg9
I-719000
sg10
F0.6871537396121884
sg11
S's..muller@enron.com'
p79
sg13
I1725545
sg14
g6
sg15
F0.8289473684210527
sg16
I114
sg17
g6
sg18
I16
sg19
I947
sg20
g6
sg21
I1100000
sg22
I1416848
sg23
I12
sg24
I0
sg25
I360528
sg26
F0.25
sg27
I251654
sg28
I3202070
sg29
I1056320
ssS'JACKSON CHARLENE R'
p80
(dp81
g3
I258
sg4
F0.04
sg5
g6
sg7
I10181
sg8
I00
sg9
g6
sg10
F0.2629011318917603
sg11
S'charlene.jackson@enron.com'
p82
sg13
g6
sg14
g6
sg15
F0.5127388535031847
sg16
I117
sg17
g6
sg18
I56
sg19
I2435
sg20
g6
sg21
I250000
sg22
I725735
sg23
I25
sg24
I19
sg25
I540672
sg26
F0.74
sg27
I288558
sg28
I551174
sg29
I185063
ssS'WESTFAHL RICHARD K'
p83
(dp84
g3
g6
sg4
F0.81
sg5
g6
sg7
I51870
sg8
I00
sg9
I-10800
sg11
S'dick.westfahl@enron.com'
p85
sg13
I256191
sg14
g6
sg15
g32
sg16
g6
sg17
g6
sg18
g6
sg19
I401130
sg20
g6
sg21
g6
sg22
I384930
sg23
g6
sg24
g6
sg25
I384930
sg26
F1.0
sg27
I63744
sg28
I762135
sg29
g6
ssS'WALTERS GARETH W'
p86
(dp87
g3
g6
sg4
Fnan
sg5
I53625
sg7
I33785
sg8
I00
sg9
g6
sg11
g6
sg13
g6
sg14
g6
sg15
g32
sg16
g6
sg17
g6
sg18
g6
sg19
g6
sg20
g6
sg21
g6
sg22
I1030329
sg23
g6
sg24
g6
sg25
g6
sg26
Fnan
sg27
g6
sg28
I87410
sg29
I1030329
ssS'WALLS JR ROBERT H'
p88
(dp89
g3
I671
sg4
F0.14
sg5
g6
sg7
I50936
sg8
I00
sg9
g6
sg10
F0.08063653483428192
sg11
S'rob.walls@enron.com'
p90
sg13
I540751
sg14
g6
sg15
F0.2839657282741738
sg16
I215
sg17
g6
sg18
I146
sg19
I2
sg20
g6
sg21
I850000
sg22
I5898997
sg23
I17
sg24
I0
sg25
I1552453
sg26
F0.26
sg27
I357091
sg28
I1798780
sg29
I4346544
ssS'KITCHEN LOUISE'
p91
(dp92
g3
I8305
sg4
F0.02
sg5
g6
sg7
I5774
sg8
I00
sg9
g6
sg10
F0.1681384154308126
sg11
S'louise.kitchen@enron.com'
p93
sg13
g6
sg14
g6
sg15
F0.4100468454101465
sg16
I3669
sg17
g6
sg18
I1728
sg19
I93925
sg20
g6
sg21
I3100000
sg22
I547143
sg23
I251
sg24
I194
sg25
I466101
sg26
F0.85
sg27
I271442
sg28
I3471141
sg29
I81042
ssS'CHAN RONNIE'
p94
(dp95
g3
g6
sg4
Fnan
sg5
g6
sg7
g6
sg8
I00
sg9
I-98784
sg11
g6
sg13
g6
sg14
I-32460
sg15
g32
sg16
g6
sg17
g6
sg18
g6
sg19
g6
sg20
I98784
sg21
g6
sg22
g6
sg23
g6
sg24
g6
sg25
I32460
sg26
Fnan
sg27
g6
sg28
g6
sg29
g6
ssS'BELFER ROBERT'
p96
(dp97
g3
g6
sg4
Fnan
sg5
I-102500
sg7
g6
sg8
I00
sg9
g6
sg11
g6
sg13
g6
sg14
I44093
sg15
g32
sg16
g6
sg17
g6
sg18
g6
sg19
g6
sg20
I3285
sg21
g6
sg22
I-44093
sg23
g6
sg24
g6
sg25
g6
sg26
Fnan
sg27
g6
sg28
I102500
sg29
I3285
ssS'SHANKMAN JEFFREY A'
p98
(dp99
g3
I3221
sg4
F0.59
sg5
g6
sg7
I178979
sg8
I00
sg9
g6
sg10
F0.1044005954709711
sg11
S'jeffrey.shankman@enron.com'
p100
sg13
I554422
sg14
g6
sg15
F0.3231108098949509
sg16
I1730
sg17
g6
sg18
I2681
sg19
I1191
sg20
g6
sg21
I2000000
sg22
I2072035
sg23
I94
sg24
I83
sg25
I630137
sg26
F0.3
sg27
I304110
sg28
I3038702
sg29
I1441898
ssS'WODRASKA JOHN'
p101
(dp102
g3
g6
sg4
Fnan
sg5
g6
sg7
g6
sg8
I00
sg9
g6
sg11
S'john.wodraska@enron.com'
p103
sg13
g6
sg14
g6
sg15
g32
sg16
g6
sg17
g6
sg18
g6
sg19
I189583
sg20
g6
sg21
g6
sg22
g6
sg23
g6
sg24
g6
sg25
g6
sg26
Fnan
sg27
g6
sg28
I189583
sg29
g6
ssS'BERGSIEKER RICHARD P'
p104
(dp105
g3
I383
sg4
F0.31
sg5
g6
sg7
I59175
sg8
I00
sg9
I-485813
sg10
F0.2875094695030814
sg11
S'rick.bergsieker@enron.com'
p106
sg13
I180250
sg14
g6
sg15
F0.5361990950226244
sg16
I233
sg17
g6
sg18
I59
sg19
I427316
sg20
g6
sg21
I250000
sg22
I659249
sg23
I4
sg24
I0
sg25
I659249
sg26
F1.0
sg27
I187922
sg28
I618850
sg29
g6
ssS'URQUHART JOHN A'
p107
(dp108
g3
g6
sg4
Fnan
sg5
g6
sg7
I228656
sg8
I00
sg9
I-36666
sg11
g6
sg13
g6
sg14
g6
sg15
g32
sg16
g6
sg17
g6
sg18
g6
sg19
g6
sg20
I36666
sg21
g6
sg22
g6
sg23
g6
sg24
g6
sg25
g6
sg26
Fnan
sg27
g6
sg28
I228656
sg29
g6
ssS'BIBI PHILIPPE A'
p109
(dp110
g3
I1607
sg4
F0.18
sg5
g6
sg7
I38559
sg8
I00
sg9
g6
sg10
F0.6888899211054744
sg11
S'philippe.bibi@enron.com'
p111
sg13
I369721
sg14
g6
sg15
F0.8299939283545841
sg16
I1336
sg17
g6
sg18
I40
sg19
I425688
sg20
g6
sg21
I1000000
sg22
I1843816
sg23
I23
sg24
I8
sg25
I378082
sg26
F0.21
sg27
I213625
sg28
I2047593
sg29
I1465734
ssS'RIEKER PAULA H'
p112
(dp113
g3
I1328
sg4
F0.13
sg5
I214678
sg7
I33271
sg8
I01
sg9
I-100000
sg10
F0.9045224083295609
sg11
S'paula.rieker@enron.com'
p114
sg13
g6
sg14
g6
sg15
F0.951063829787234
sg16
I1258
sg17
g6
sg18
I82
sg19
I1950
sg20
g6
sg21
I700000
sg22
I1918887
sg23
I35
sg24
I48
sg25
I283649
sg26
F0.15
sg27
I249201
sg28
I1099100
sg29
I1635238
ssS'WHALEY DAVID A'
p115
(dp116
g3
g6
sg4
Fnan
sg5
g6
sg7
g6
sg8
I00
sg9
g6
sg11
g6
sg13
g6
sg14
g6
sg15
g32
sg16
g6
sg17
g6
sg18
g6
sg19
g6
sg20
g6
sg21
g6
sg22
I98718
sg23
g6
sg24
g6
sg25
g6
sg26
Fnan
sg27
g6
sg28
g6
sg29
I98718
ssS'BECK SALLY W'
p117
(dp118
g3
I7315
sg4
F0.16
sg5
g6
sg7
I37172
sg8
I00
sg9
g6
sg10
F0.07389182217590885
sg11
S'sally.beck@enron.com'
p119
sg13
g6
sg14
g6
sg15
F0.2718305026591182
sg16
I2639
sg17
g6
sg18
I4343
sg19
I566
sg20
g6
sg21
I700000
sg22
I126027
sg23
I144
sg24
I386
sg25
I126027
sg26
F1.0
sg27
I231330
sg28
I969068
sg29
g6
ssS'HAUG DAVID L'
p120
(dp121
g3
I573
sg4
Fnan
sg5
g6
sg7
I475
sg8
I00
sg9
g6
sg10
F0.6629040357925492
sg11
S'david.haug@enron.com'
p122
sg13
g6
sg14
g6
sg15
F0.8141891891891891
sg16
I471
sg17
g6
sg18
I19
sg19
g6
sg20
g6
sg21
g6
sg22
I2217299
sg23
I4
sg24
I7
sg25
I2217299
sg26
F1.0
sg27
g6
sg28
I475
sg29
g6
ssS'ECHOLS JOHN B'
p123
(dp124
g3
g6
sg4
F0.12
sg5
g6
sg7
I21530
sg8
I00
sg9
g6
sg11
S'john.echols@enron.com'
p125
sg13
I2234774
sg14
g6
sg15
g32
sg16
g6
sg17
g6
sg18
g6
sg19
I53775
sg20
g6
sg21
I200000
sg22
I1008941
sg23
g6
sg24
g6
sg25
I407503
sg26
F0.4
sg27
I182245
sg28
I2692324
sg29
I601438
ssS'MENDELSOHN JOHN'
p126
(dp127
g3
g6
sg4
Fnan
sg5
g6
sg7
I148
sg8
I00
sg9
I-103750
sg11
g6
sg13
g6
sg14
g6
sg15
g32
sg16
g6
sg17
g6
sg18
g6
sg19
g6
sg20
I103750
sg21
g6
sg22
g6
sg23
g6
sg24
g6
sg25
g6
sg26
Fnan
sg27
g6
sg28
I148
sg29
g6
ssS'HICKERSON GARY J'
p128
(dp129
g3
I1320
sg4
F0.47
sg5
g6
sg7
I98849
sg8
I00
sg9
g6
sg10
F0.48802723090549044
sg11
S'gary.hickerson@enron.com'
p130
sg13
I69223
sg14
g6
sg15
F0.6985894580549369
sg16
I900
sg17
g6
sg18
I27
sg19
I1936
sg20
g6
sg21
I1700000
sg22
I441096
sg23
I40
sg24
I1
sg25
I441096
sg26
F1.0
sg27
I211788
sg28
I2081796
sg29
g6
ssS'CLINE KENNETH W'
p131
(dp132
g3
g6
sg4
Fnan
sg5
g6
sg7
g6
sg8
I00
sg9
g6
sg11
g6
sg13
g6
sg14
I-472568
sg15
g32
sg16
g6
sg17
g6
sg18
g6
sg19
g6
sg20
g6
sg21
g6
sg22
I189518
sg23
g6
sg24
g6
sg25
I662086
sg26
F3.49
sg27
g6
sg28
g6
sg29
g6
ssS'LEWIS RICHARD'
p133
(dp134
g3
I952
sg4
Fnan
sg5
g6
sg7
g6
sg8
I00
sg9
g6
sg10
F0.5865241864997218
sg11
S'richard.lewis@enron.com'
p135
sg13
g6
sg14
g6
sg15
F0.7658486707566462
sg16
I739
sg17
g6
sg18
I26
sg19
g6
sg20
g6
sg21
g6
sg22
I850477
sg23
I10
sg24
I0
sg25
g6
sg26
Fnan
sg27
g6
sg28
g6
sg29
I850477
ssS'HAYES ROBERT E'
p136
(dp137
g3
I504
sg4
Fnan
sg5
I7961
sg7
g6
sg8
I00
sg9
g6
sg10
F0.016360194699837752
sg11
S'robert.hayes@enron.com'
p138
sg13
g6
sg14
g6
sg15
F0.12790697674418605
sg16
I50
sg17
g6
sg18
I12
sg19
g6
sg20
g6
sg21
g6
sg22
I151418
sg23
I16
sg24
I0
sg25
I151418
sg26
F1.0
sg27
g6
sg28
I7961
sg29
g6
ssS'MCCARTY DANNY J'
p139
(dp140
g3
I1433
sg4
Fnan
sg5
g6
sg7
g6
sg8
I00
sg9
g6
sg10
F0.10538848206711282
sg11
S'danny.mccarty@enron.com'
p141
sg13
g6
sg14
g6
sg15
F0.3246359223300971
sg16
I508
sg17
g6
sg18
I215
sg19
g6
sg20
g6
sg21
g6
sg22
I758931
sg23
I25
sg24
I2
sg25
I94556
sg26
F0.12
sg27
g6
sg28
g6
sg29
I664375
ssS'KOPPER MICHAEL J'
p142
(dp143
g3
g6
sg4
F0.53
sg5
g6
sg7
I118134
sg8
I01
sg9
g6
sg11
S'michael.kopper@enron.com'
p144
sg13
I602671
sg14
g6
sg15
g32
sg16
g6
sg17
g6
sg18
g6
sg19
I907502
sg20
g6
sg21
I800000
sg22
I985032
sg23
g6
sg24
g6
sg25
I985032
sg26
F1.0
sg27
I224305
sg28
I2652612
sg29
g6
ssS'LEFF DANIEL P'
p145
(dp146
g3
I2822
sg4
Fnan
sg5
g6
sg7
g6
sg8
I00
sg9
g6
sg10
F0.9105856203574936
sg11
S'dan.leff@enron.com'
p147
sg13
I1387399
sg14
g6
sg15
F0.9542461005199306
sg16
I2672
sg17
g6
sg18
I63
sg19
I3083
sg20
g6
sg21
I1000000
sg22
I360528
sg23
I67
sg24
I14
sg25
I360528
sg26
F1.0
sg27
I273746
sg28
I2664228
sg29
g6
ssS'LAVORATO JOHN J'
p148
(dp149
g3
I7259
sg4
F0.15
sg5
g6
sg7
I49537
sg8
I00
sg9
g6
sg10
F0.2478712717251373
sg11
S'john.lavorato@enron.com'
p150
sg13
I2035380
sg14
g6
sg15
F0.4978667208451849
sg16
I3962
sg17
g6
sg18
I2585
sg19
I1552
sg20
g6
sg21
I8000000
sg22
I5167144
sg23
I528
sg24
I411
sg25
I1008149
sg26
F0.2
sg27
I339288
sg28
I10425757
sg29
I4158995
ssS'BERBERIAN DAVID'
p151
(dp152
g3
g6
sg4
F0.05
sg5
g6
sg7
I11892
sg8
I00
sg9
g6
sg11
S'david.berberian@enron.com'
p153
sg13
g6
sg14
g6
sg15
g32
sg16
g6
sg17
g6
sg18
g6
sg19
g6
sg20
g6
sg21
g6
sg22
I2493616
sg23
g6
sg24
g6
sg25
I869220
sg26
F0.35
sg27
I216582
sg28
I228474
sg29
I1624396
ssS'DETMERING TIMOTHY J'
p154
(dp155
g3
g6
sg4
F0.25
sg5
I875307
sg7
I52255
sg8
I00
sg9
I-775241
sg11
S'timothy.detmering@enron.com'
p156
sg13
I415657
sg14
I-315068
sg15
g32
sg16
g6
sg17
g6
sg18
g6
sg19
I1105
sg20
g6
sg21
I425000
sg22
I2027865
sg23
g6
sg24
g6
sg25
I315068
sg26
F0.16
sg27
I210500
sg28
I1204583
sg29
I2027865
ssS'WAKEHAM JOHN'
p157
(dp158
g3
g6
sg4
Fnan
sg5
g6
sg7
I103773
sg8
I00
sg9
g6
sg11
g6
sg13
g6
sg14
g6
sg15
g32
sg16
g6
sg17
g6
sg18
g6
sg19
g6
sg20
I109298
sg21
g6
sg22
g6
sg23
g6
sg24
g6
sg25
g6
sg26
Fnan
sg27
g6
sg28
I213071
sg29
g6
ssS'POWERS WILLIAM'
p159
(dp160
g3
I653
sg4
Fnan
sg5
g6
sg7
g6
sg8
I00
sg9
I-17500
sg10
F0.0003123366468491956
sg11
S'ken.powers@enron.com'
p161
sg13
g6
sg14
g6
sg15
F0.017673048600883652
sg16
I12
sg17
g6
sg18
I26
sg19
g6
sg20
I17500
sg21
g6
sg22
g6
sg23
I0
sg24
I0
sg25
g6
sg26
Fnan
sg27
g6
sg28
g6
sg29
g6
ssS'GOLD JOSEPH'
p162
(dp163
g3
g6
sg4
Fnan
sg5
g6
sg7
g6
sg8
I00
sg9
g6
sg11
S'joe.gold@enron.com'
p164
sg13
I304805
sg14
g6
sg15
g32
sg16
g6
sg17
g6
sg18
g6
sg19
I819288
sg20
g6
sg21
I750000
sg22
I877611
sg23
g6
sg24
g6
sg25
I441096
sg26
F0.5
sg27
I272880
sg28
I2146973
sg29
I436515
ssS'BANNANTINE JAMES M'
p165
(dp166
g3
I566
sg4
F118.03
sg5
g6
sg7
I56301
sg8
I00
sg9
I-5104
sg10
F0.7175086505190311
sg11
S'james.bannantine@enron.com'
p167
sg13
g6
sg14
I-560222
sg15
F0.8470588235294118
sg16
I465
sg17
g6
sg18
I29
sg19
I864523
sg20
g6
sg21
g6
sg22
I5243487
sg23
I39
sg24
I0
sg25
I1757552
sg26
F0.34
sg27
I477
sg28
I916197
sg29
I4046157
ssS'DUNCAN JOHN H'
p168
(dp169
g3
g6
sg4
Fnan
sg5
g6
sg7
g6
sg8
I00
sg9
I-25000
sg11
g6
sg13
g6
sg14
g6
sg15
g32
sg16
g6
sg17
g6
sg18
g6
sg19
g6
sg20
I102492
sg21
g6
sg22
I371750
sg23
g6
sg24
g6
sg25
g6
sg26
Fnan
sg27
g6
sg28
I77492
sg29
I371750
ssS'SHAPIRO RICHARD S'
p170
(dp171
g3
I15149
sg4
F0.51
sg5
g6
sg7
I137767
sg8
I00
sg9
g6
sg10
F0.0813037406577961
sg11
S'richard.shapiro@enron.com'
p172
sg13
g6
sg14
g6
sg15
F0.28513810804204354
sg16
I4527
sg17
g6
sg18
I1215
sg19
I705
sg20
g6
sg21
I650000
sg22
I987001
sg23
I74
sg24
I65
sg25
I379164
sg26
F0.38
sg27
I269076
sg28
I1057548
sg29
I607837
ssS'SHERRIFF JOHN R'
p173
(dp174
g3
I3187
sg4
Fnan
sg5
g6
sg7
g6
sg8
I00
sg9
g6
sg10
F0.4315275867639783
sg11
S'john.sherriff@enron.com'
p175
sg13
I554422
sg14
g6
sg15
F0.656907593778591
sg16
I2103
sg17
g6
sg18
I92
sg19
I1852186
sg20
g6
sg21
I1500000
sg22
I3128982
sg23
I28
sg24
I23
sg25
I1293424
sg26
F0.41
sg27
I428780
sg28
I4335388
sg29
I1835558
ssS'SHELBY REX'
p176
(dp177
g3
I225
sg4
F0.11
sg5
g6
sg7
I22884
sg8
I01
sg9
I-4167
sg10
F0.19978191000918272
sg11
S'rex.shelby@enron.com'
p178
sg13
g6
sg14
g6
sg15
F0.44696969696969696
sg16
I91
sg17
g6
sg18
I39
sg19
I1573324
sg20
g6
sg21
I200000
sg22
I2493616
sg23
I13
sg24
I14
sg25
I869220
sg26
F0.35
sg27
I211844
sg28
I2003885
sg29
I1624396
ssS'LEMAISTRE CHARLES'
p179
(dp180
g3
g6
sg4
Fnan
sg5
g6
sg7
g6
sg8
I00
sg9
I-25000
sg11
g6
sg13
g6
sg14
g6
sg15
g32
sg16
g6
sg17
g6
sg18
g6
sg19
g6
sg20
I112492
sg21
g6
sg22
I412878
sg23
g6
sg24
g6
sg25
g6
sg26
Fnan
sg27
g6
sg28
I87492
sg29
I412878
ssS'DEFFNER JOSEPH M'
p181
(dp182
g3
I714
sg4
F0.2
sg5
g6
sg7
I41626
sg8
I00
sg9
g6
sg10
F0.7250911515370145
sg11
S'joseph.deffner@enron.com'
p183
sg13
I335349
sg14
g6
sg15
F0.8515228426395939
sg16
I552
sg17
g6
sg18
I74
sg19
I25553
sg20
g6
sg21
I600000
sg22
I159211
sg23
I115
sg24
I4
sg25
I141833
sg26
F0.89
sg27
I206121
sg28
I1208649
sg29
I17378
ssS'KISHKILL JOSEPH G'
p184
(dp185
g3
g6
sg4
F0.67
sg5
g6
sg7
I116335
sg8
I00
sg9
I-51042
sg11
S'joe.kishkill@enron.com'
p186
sg13
g6
sg14
g6
sg15
g32
sg16
g6
sg17
g6
sg18
g6
sg19
I465357
sg20
g6
sg21
g6
sg22
I1034346
sg23
g6
sg24
g6
sg25
I1034346
sg26
F1.0
sg27
I174246
sg28
I704896
sg29
g6
ssS'WHALLEY LAWRENCE G'
p187
(dp188
g3
I6019
sg4
F0.11
sg5
g6
sg7
I57838
sg8
I00
sg9
g6
sg10
F0.3945559426910899
sg11
S'greg.whalley@enron.com'
p189
sg13
I808346
sg14
g6
sg15
F0.6281368821292775
sg16
I3920
sg17
g6
sg18
I556
sg19
I301026
sg20
g6
sg21
I3000000
sg22
I6079137
sg23
I186
sg24
I24
sg25
I2796177
sg26
F0.46
sg27
I510364
sg28
I4677574
sg29
I3282960
ssS'MCCONNELL MICHAEL S'
p190
(dp191
g3
I3329
sg4
F0.22
sg5
g6
sg7
I81364
sg8
I00
sg9
g6
sg10
F0.16619958721048717
sg11
S'mike.mcconnell@enron.com'
p192
sg13
I554422
sg14
g6
sg15
F0.4076758359413606
sg16
I2189
sg17
g6
sg18
I2742
sg19
I540
sg20
g6
sg21
I1100000
sg22
I3101279
sg23
I92
sg24
I194
sg25
I1478269
sg26
F0.48
sg27
I365038
sg28
I2101364
sg29
I1623010
ssS'PIRO JIM'
p193
(dp194
g3
I58
sg4
Fnan
sg5
g6
sg7
g6
sg8
I00
sg9
g6
sg10
F0.002921840759678598
sg11
S'jim.piro@enron.com'
p195
sg13
g6
sg14
g6
sg15
F0.05405405405405406
sg16
I3
sg17
g6
sg18
I16
sg19
g6
sg20
g6
sg21
g6
sg22
I47304
sg23
I0
sg24
I1
sg25
I47304
sg26
F1.0
sg27
g6
sg28
g6
sg29
g6
ssS'DELAINEY DAVID W'
p196
(dp197
g3
I3093
sg4
F0.24
sg5
g6
sg7
I86174
sg8
I01
sg9
g6
sg10
F0.20236857050484058
sg11
S'david.delainey@enron.com'
p198
sg13
I1294981
sg14
g6
sg15
F0.4498539435248296
sg16
I2097
sg17
g6
sg18
I3069
sg19
I1661
sg20
g6
sg21
I3000000
sg22
I3614261
sg23
I66
sg24
I609
sg25
I1323148
sg26
F0.37
sg27
I365163
sg28
I4747979
sg29
I2291113
ssS'SULLIVAN-SHAKLOVITZ COLLEEN'
p199
(dp200
g3
g6
sg4
Fnan
sg5
I181993
sg7
g6
sg8
I00
sg9
g6
sg11
g6
sg13
I554422
sg14
g6
sg15
g32
sg16
g6
sg17
g6
sg18
g6
sg19
I162
sg20
g6
sg21
I100000
sg22
I1362375
sg23
g6
sg24
g6
sg25
g6
sg26
Fnan
sg27
I162779
sg28
I999356
sg29
I1362375
ssS'WROBEL BRUCE'
p201
(dp202
g3
g6
sg4
Fnan
sg5
g6
sg7
g6
sg8
I00
sg9
g6
sg11
g6
sg13
g6
sg14
g6
sg15
g32
sg16
g6
sg17
g6
sg18
g6
sg19
g6
sg20
g6
sg21
g6
sg22
I139130
sg23
g6
sg24
g6
sg25
g6
sg26
Fnan
sg27
g6
sg28
g6
sg29
I139130
ssS'LINDHOLM TOD A'
p203
(dp204
g3
g6
sg4
F0.24
sg5
I204075
sg7
I57727
sg8
I00
sg9
g6
sg11
S'tod.lindholm@enron.com'
p205
sg13
I175000
sg14
g6
sg15
g32
sg16
g6
sg17
g6
sg18
g6
sg19
I2630
sg20
g6
sg21
I200000
sg22
I3064208
sg23
g6
sg24
g6
sg25
I514847
sg26
F0.17
sg27
I236457
sg28
I875889
sg29
I2549361
ssS'MEYER JEROME J'
p206
(dp207
g3
g6
sg4
Fnan
sg5
g6
sg7
I2151
sg8
I00
sg9
I-38346
sg11
g6
sg13
g6
sg14
g6
sg15
g32
sg16
g6
sg17
g6
sg18
g6
sg19
g6
sg20
I38346
sg21
g6
sg22
g6
sg23
g6
sg24
g6
sg25
g6
sg26
Fnan
sg27
g6
sg28
I2151
sg29
g6
ssS'LAY KENNETH L'
p208
(dp209
g3
I4273
sg4
F0.09
sg5
I202911
sg7
I99832
sg8
I01
sg9
I-300000
sg10
F0.35020905636041855
sg11
S'kenneth.lay@enron.com'
p210
sg13
I3600000
sg14
g6
sg15
F0.5917846368066837
sg16
I2411
sg17
I81525000
sg18
I36
sg19
I10359729
sg20
g6
sg21
I7000000
sg22
I49110078
sg23
I123
sg24
I16
sg25
I14761694
sg26
F0.3
sg27
I1072321
sg28
I103559793
sg29
I34348384
ssS'BUTTS ROBERT H'
p211
(dp212
g3
g6
sg4
F0.04
sg5
g6
sg7
I9410
sg8
I00
sg9
I-75000
sg11
S'bob.butts@enron.com'
p213
sg13
I175000
sg14
g6
sg15
g32
sg16
g6
sg17
g6
sg18
g6
sg19
I150656
sg20
g6
sg21
I750000
sg22
I417619
sg23
g6
sg24
g6
sg25
I417619
sg26
F1.0
sg27
I261516
sg28
I1271582
sg29
g6
ssS'OLSON CINDY K'
p214
(dp215
g3
I1184
sg4
F0.19
sg5
I77716
sg7
I63791
sg8
I00
sg9
g6
sg10
F0.5196590159298708
sg11
S'cindy.olson@enron.com'
p216
sg13
I100000
sg14
g6
sg15
F0.720873786407767
sg16
I856
sg17
g6
sg18
I52
sg19
I972
sg20
g6
sg21
I750000
sg22
I2606763
sg23
I20
sg24
I15
sg25
I969729
sg26
F0.37
sg27
I329078
sg28
I1321557
sg29
I1637034
ssS'MCDONALD REBECCA'
p217
(dp218
g3
I894
sg4
Fnan
sg5
g6
sg7
g6
sg8
I00
sg9
g6
sg10
F0.7301108978434302
sg11
S'rebecca.mcdonald@enron.com'
p219
sg13
g6
sg14
g6
sg15
F0.8544652701212789
sg16
I720
sg17
g6
sg18
I13
sg19
g6
sg20
g6
sg21
g6
sg22
I1691366
sg23
I54
sg24
I1
sg25
I934065
sg26
F0.55
sg27
g6
sg28
g6
sg29
I757301
ssS'CUMBERLAND MICHAEL S'
p220
(dp221
g3
g6
sg4
F0.12
sg5
g6
sg7
I22344
sg8
I00
sg9
g6
sg11
g6
sg13
I275000
sg14
g6
sg15
g32
sg16
g6
sg17
g6
sg18
g6
sg19
I713
sg20
g6
sg21
I325000
sg22
I207940
sg23
g6
sg24
g6
sg25
I207940
sg26
F1.0
sg27
I184899
sg28
I807956
sg29
g6
ssS'GAHN ROBERT S'
p222
(dp223
g3
g6
sg4
F0.26
sg5
I73122
sg7
I50080
sg8
I00
sg9
I-1042
sg11
g6
sg13
g6
sg14
g6
sg15
g32
sg16
g6
sg17
g6
sg18
g6
sg19
I76547
sg20
g6
sg21
I509870
sg22
I318607
sg23
g6
sg24
g6
sg25
I235370
sg26
F0.74
sg27
I192008
sg28
I900585
sg29
I83237
ssS'MCCLELLAN GEORGE'
p224
(dp225
g3
I1744
sg4
F0.87
sg5
g6
sg7
I228763
sg8
I00
sg9
I-125000
sg10
F0.7196110921539394
sg11
S'george.mcclellan@enron.com'
p226
sg13
g6
sg14
g6
sg15
F0.8482989403234802
sg16
I1469
sg17
g6
sg18
I49
sg19
I51587
sg20
g6
sg21
I900000
sg22
I947861
sg23
I52
sg24
I0
sg25
I441096
sg26
F0.47
sg27
I263413
sg28
I1318763
sg29
I506765
ssS'HERMANN ROBERT J'
p227
(dp228
g3
g6
sg4
F0.18
sg5
g6
sg7
I48357
sg8
I00
sg9
I-280000
sg11
S'robert.hermann@enron.com'
p229
sg13
I150000
sg14
g6
sg15
g32
sg16
g6
sg17
g6
sg18
g6
sg19
I416441
sg20
g6
sg21
I700000
sg22
I668132
sg23
g6
sg24
g6
sg25
I480632
sg26
F0.72
sg27
I262663
sg28
I1297461
sg29
I187500
ssS'SCRIMSHAW MATTHEW'
p230
(dp231
g3
g6
sg4
Fnan
sg5
g6
sg7
g6
sg8
I00
sg9
g6
sg11
S'matthew.scrimshaw@enron.com'
p232
sg13
g6
sg14
g6
sg15
g32
sg16
g6
sg17
g6
sg18
g6
sg19
g6
sg20
g6
sg21
g6
sg22
I759557
sg23
g6
sg24
g6
sg25
g6
sg26
Fnan
sg27
g6
sg28
g6
sg29
I759557
ssS'GATHMANN WILLIAM D'
p233
(dp234
g3
g6
sg4
Fnan
sg5
g6
sg7
g6
sg8
I00
sg9
g6
sg11
g6
sg13
g6
sg14
I-72419
sg15
g32
sg16
g6
sg17
g6
sg18
g6
sg19
g6
sg20
g6
sg21
g6
sg22
I1945360
sg23
g6
sg24
g6
sg25
I264013
sg26
F0.14
sg27
g6
sg28
g6
sg29
I1753766
ssS'HAEDICKE MARK E'
p235
(dp236
g3
I4009
sg4
F0.2
sg5
I2157527
sg7
I76169
sg8
I00
sg9
I-934484
sg10
F0.12314791328296024
sg11
S'mark.haedicke@enron.com'
p237
sg13
I983346
sg14
I-329825
sg15
F0.35092436974789915
sg16
I1847
sg17
g6
sg18
I1941
sg19
I52382
sg20
g6
sg21
I1150000
sg22
I803094
sg23
I180
sg24
I61
sg25
I524169
sg26
F0.65
sg27
I374125
sg28
I3859065
sg29
I608750
ssS'BOWEN JR RAYMOND M'
p238
(dp239
g3
I1858
sg4
F0.24
sg5
g6
sg7
I65907
sg8
I01
sg9
I-833
sg10
F0.8599241534099304
sg11
S'raymond.bowen@enron.com'
p240
sg13
I974293
sg14
g6
sg15
F0.9273209549071618
sg16
I1593
sg17
g6
sg18
I27
sg19
I1621
sg20
g6
sg21
I1350000
sg22
I252055
sg23
I140
sg24
I15
sg25
I252055
sg26
F1.0
sg27
I278601
sg28
I2669589
sg29
g6
ssS'GILLIS JOHN'
p241
(dp242
g3
g6
sg4
Fnan
sg5
g6
sg7
g6
sg8
I00
sg9
g6
sg11
g6
sg13
g6
sg14
g6
sg15
g32
sg16
g6
sg17
g6
sg18
g6
sg19
g6
sg20
g6
sg21
g6
sg22
I85641
sg23
g6
sg24
g6
sg25
I75838
sg26
F0.89
sg27
g6
sg28
g6
sg29
I9803
ssS'FITZGERALD JAY L'
p243
(dp244
g3
I936
sg4
F0.12
sg5
g6
sg7
I23870
sg8
I00
sg9
g6
sg10
F0.5912188404773675
sg11
S'jay.fitzgerald@enron.com'
p245
sg13
I556416
sg14
g6
sg15
F0.7689075630252101
sg16
I723
sg17
g6
sg18
I16
sg19
I285414
sg20
g6
sg21
I350000
sg22
I1621236
sg23
I1
sg24
I8
sg25
I956775
sg26
F0.59
sg27
I199157
sg28
I1414857
sg29
I664461
ssS'MORAN MICHAEL P'
p246
(dp247
g3
I672
sg4
Fnan
sg5
g6
sg7
g6
sg8
I00
sg9
g6
sg10
F0.03377935457117665
sg11
S'michael.moran@enron.com'
p248
sg13
g6
sg14
g6
sg15
F0.1837916063675832
sg16
I127
sg17
g6
sg18
I19
sg19
g6
sg20
g6
sg21
g6
sg22
I221141
sg23
I0
sg24
I0
sg25
I161602
sg26
F0.73
sg27
g6
sg28
g6
sg29
I59539
ssS'REDMOND BRIAN L'
p249
(dp250
g3
I1671
sg4
F0.15
sg5
g6
sg7
I14689
sg8
I00
sg9
g6
sg10
F0.48380406652691427
sg11
S'brian.redmond@enron.com'
p251
sg13
g6
sg14
g6
sg15
F0.6955602536997886
sg16
I1063
sg17
g6
sg18
I221
sg19
g6
sg20
g6
sg21
g6
sg22
I7890324
sg23
I204
sg24
I49
sg25
I381285
sg26
F0.05
sg27
I96840
sg28
I111529
sg29
I7509039
ssS'BAZELIDES PHILIP J'
p252
(dp253
g3
g6
sg4
Fnan
sg5
I684694
sg7
g6
sg8
I00
sg9
g6
sg11
g6
sg13
I93750
sg14
g6
sg15
g32
sg16
g6
sg17
g6
sg18
g6
sg19
I874
sg20
g6
sg21
g6
sg22
I1599641
sg23
g6
sg24
g6
sg25
g6
sg26
Fnan
sg27
I80818
sg28
I860136
sg29
I1599641
ssS'BELDEN TIMOTHY N'
p254
(dp255
g3
I7991
sg4
F0.08
sg5
I2144013
sg7
I17355
sg8
I01
sg9
I-2334434
sg10
F0.4776073859433872
sg11
S'tim.belden@enron.com'
p256
sg13
g6
sg14
g6
sg15
F0.6910914454277286
sg16
I5521
sg17
g6
sg18
I484
sg19
I210698
sg20
g6
sg21
I5249999
sg22
I1110705
sg23
I228
sg24
I108
sg25
I157569
sg26
F0.14
sg27
I213999
sg28
I5501630
sg29
I953136
ssS'DURAN WILLIAM D'
p257
(dp258
g3
I904
sg4
F0.12
sg5
g6
sg7
I25785
sg8
I00
sg9
g6
sg10
F0.5974142369520032
sg11
S'w.duran@enron.com'
p259
sg13
I1105218
sg14
g6
sg15
F0.7729257641921398
sg16
I599
sg17
g6
sg18
I12
sg19
I1568
sg20
g6
sg21
I750000
sg22
I1640910
sg23
I106
sg24
I3
sg25
I189041
sg26
F0.12
sg27
I210692
sg28
I2093263
sg29
I1451869
ssS'THORN TERENCE H'
p260
(dp261
g3
I266
sg4
F0.21
sg5
I16586
sg7
I46145
sg8
I00
sg9
g6
sg10
F0.05654171397044
sg11
S'terence.thorn@enron.com'
p262
sg13
I200000
sg14
g6
sg15
F0.23778501628664495
sg16
I73
sg17
g6
sg18
I41
sg19
I426629
sg20
g6
sg21
g6
sg22
I4817796
sg23
I0
sg24
I0
sg25
I365320
sg26
F0.08
sg27
I222093
sg28
I911453
sg29
I4452476
ssS'FASTOW ANDREW S'
p263
(dp264
g3
g6
sg4
F0.13
sg5
g6
sg7
I55921
sg8
I01
sg9
I-1386055
sg11
S'andrew.fastow@enron.com'
p265
sg13
I1736055
sg14
g6
sg15
g32
sg16
g6
sg17
g6
sg18
g6
sg19
I277464
sg20
g6
sg21
I1300000
sg22
I1794412
sg23
g6
sg24
g6
sg25
I1794412
sg26
F1.0
sg27
I440698
sg28
I2424083
sg29
g6
ssS'FOY JOE'
p266
(dp267
g3
I57
sg4
Fnan
sg5
I181755
sg7
g6
sg8
I00
sg9
g6
sg10
F0.0008163265306122448
sg11
S'tracy.foy@enron.com'
p268
sg13
g6
sg14
g6
sg15
F0.02857142857142857
sg16
I2
sg17
g6
sg18
I13
sg19
g6
sg20
g6
sg21
g6
sg22
I343434
sg23
I0
sg24
I0
sg25
g6
sg26
Fnan
sg27
g6
sg28
I181755
sg29
I343434
ssS'CALGER CHRISTOPHER F'
p269
(dp270
g3
I2598
sg4
F0.15
sg5
g6
sg7
I35818
sg8
I01
sg9
I-262500
sg10
F0.7737839300164234
sg11
S'christopher.calger@enron.com'
p271
sg13
I375304
sg14
g6
sg15
F0.8796498905908097
sg16
I2188
sg17
g6
sg18
I144
sg19
I486
sg20
g6
sg21
I1250000
sg22
I126027
sg23
I199
sg24
I25
sg25
I126027
sg26
F1.0
sg27
I240189
sg28
I1639297
sg29
g6
ssS'RICE KENNETH D'
p272
(dp273
g3
I905
sg4
F0.11
sg5
g6
sg7
I46950
sg8
I01
sg9
I-3504386
sg10
F0.9720293592541163
sg11
S'ken.rice@enron.com'
p274
sg13
I1617011
sg14
g6
sg15
F0.9859154929577465
sg16
I864
sg17
g6
sg18
I18
sg19
I174839
sg20
g6
sg21
I1750000
sg22
I22542539
sg23
I42
sg24
I4
sg25
I2748364
sg26
F0.12
sg27
I420636
sg28
I505050
sg29
I19794175
ssS'KAMINSKI WINCENTY J'
p275
(dp276
g3
I4607
sg4
F0.3
sg5
g6
sg7
I83585
sg8
I00
sg9
g6
sg10
F0.0017553781499476636
sg11
S'vince.kaminski@enron.com'
p277
sg13
I323466
sg14
g6
sg15
F0.04189723320158103
sg16
I583
sg17
g6
sg18
I14368
sg19
I4669
sg20
g6
sg21
I400000
sg22
I976037
sg23
I41
sg24
I171
sg25
I126027
sg26
F0.13
sg27
I275101
sg28
I1086821
sg29
I850010
ssS'LOCKHART EUGENE E'
p278
(dp279
g3
g6
sg4
Fnan
sg5
g6
sg7
g6
sg8
I00
sg9
g6
sg11
g6
sg13
g6
sg14
g6
sg15
g32
sg16
g6
sg17
g6
sg18
g6
sg19
g6
sg20
g6
sg21
g6
sg22
g6
sg23
g6
sg24
g6
sg25
g6
sg26
Fnan
sg27
g6
sg28
g6
sg29
g6
ssS'COX DAVID'
p280
(dp281
g3
I102
sg4
F0.09
sg5
g6
sg7
I27861
sg8
I00
sg9
I-41250
sg10
F0.308641975308642
sg11
S'chip.cox@enron.com'
p282
sg13
g6
sg14
g6
sg15
F0.5555555555555556
sg16
I71
sg17
g6
sg18
I33
sg19
I494
sg20
g6
sg21
I800000
sg22
I495633
sg23
I0
sg24
I4
sg25
I378082
sg26
F0.76
sg27
I314288
sg28
I1101393
sg29
I117551
ssS'OVERDYKE JR JERE C'
p283
(dp284
g3
g6
sg4
F0.2
sg5
g6
sg7
I18834
sg8
I00
sg9
g6
sg11
S'jere.overdyke@enron.com'
p285
sg13
I135836
sg14
g6
sg15
g32
sg16
g6
sg17
g6
sg18
g6
sg19
I176
sg20
g6
sg21
g6
sg22
I7307594
sg23
g6
sg24
g6
sg25
I2041016
sg26
F0.28
sg27
I94941
sg28
I249787
sg29
I5266578
ssS'PEREIRA PAULO V. FERRAZ'
p286
(dp287
g3
g6
sg4
Fnan
sg5
g6
sg7
I27942
sg8
I00
sg9
I-101250
sg11
g6
sg13
g6
sg14
g6
sg15
g32
sg16
g6
sg17
g6
sg18
g6
sg19
g6
sg20
I101250
sg21
g6
sg22
g6
sg23
g6
sg24
g6
sg25
g6
sg26
Fnan
sg27
g6
sg28
I27942
sg29
g6
ssS'STABLER FRANK'
p288
(dp289
g3
g6
sg4
F0.07
sg5
g6
sg7
I16514
sg8
I00
sg9
g6
sg11
S'frank.stabler@enron.com'
p290
sg13
g6
sg14
g6
sg15
g32
sg16
g6
sg17
g6
sg18
g6
sg19
I356071
sg20
g6
sg21
I500000
sg22
I511734
sg23
g6
sg24
g6
sg25
I511734
sg26
F1.0
sg27
I239502
sg28
I1112087
sg29
g6
ssS'SKILLING JEFFREY K'
p291
(dp292
g3
I3627
sg4
F0.03
sg5
g6
sg7
I29336
sg8
I01
sg9
g6
sg10
F0.33444621860937723
sg11
S'jeff.skilling@enron.com'
p293
sg13
I1920000
sg14
g6
sg15
F0.5783132530120482
sg16
I2042
sg17
g6
sg18
I108
sg19
I22122
sg20
g6
sg21
I5600000
sg22
I26093672
sg23
I88
sg24
I30
sg25
I6843672
sg26
F0.26
sg27
I1111258
sg28
I8682716
sg29
I19250000
ssS'BLAKE JR. NORMAN P'
p294
(dp295
g3
g6
sg4
Fnan
sg5
g6
sg7
I1279
sg8
I00
sg9
I-113784
sg11
g6
sg13
g6
sg14
g6
sg15
g32
sg16
g6
sg17
g6
sg18
g6
sg19
g6
sg20
I113784
sg21
g6
sg22
g6
sg23
g6
sg24
g6
sg25
g6
sg26
Fnan
sg27
g6
sg28
I1279
sg29
g6
ssS'SHERRICK JEFFREY B'
p296
(dp297
g3
I613
sg4
Fnan
sg5
g6
sg7
g6
sg8
I00
sg9
g6
sg10
F1.0062794194239442
sg11
S'jeffrey.sherrick@enron.com'
p298
sg13
g6
sg14
g6
sg15
F1.0031347962382444
sg16
I583
sg17
g6
sg18
I25
sg19
g6
sg20
g6
sg21
g6
sg22
I1832468
sg23
I39
sg24
I18
sg25
I405999
sg26
F0.22
sg27
g6
sg28
g6
sg29
I1426469
ssS'PRENTICE JAMES'
p299
(dp300
g3
g6
sg4
Fnan
sg5
I564348
sg7
g6
sg8
I00
sg9
g6
sg11
S'james.prentice@enron.com'
p301
sg13
g6
sg14
g6
sg15
g32
sg16
g6
sg17
g6
sg18
g6
sg19
g6
sg20
g6
sg21
g6
sg22
I1095040
sg23
g6
sg24
g6
sg25
I208809
sg26
F0.19
sg27
g6
sg28
I564348
sg29
I886231
ssS'GRAY RODNEY'
p302
(dp303
g3
g6
sg4
Fnan
sg5
I93585
sg7
g6
sg8
I00
sg9
g6
sg11
g6
sg13
I365625
sg14
g6
sg15
g32
sg16
g6
sg17
g6
sg18
g6
sg19
I680833
sg20
g6
sg21
g6
sg22
g6
sg23
g6
sg24
g6
sg25
g6
sg26
Fnan
sg27
I6615
sg28
I1146658
sg29
g6
ssS'PICKERING MARK R'
p304
(dp305
g3
I898
sg4
F0.05
sg5
g6
sg7
I31653
sg8
I00
sg9
g6
sg10
F0.5801229563209751
sg11
S'mark.pickering@enron.com'
p306
sg13
g6
sg14
g6
sg15
F0.7616580310880829
sg16
I728
sg17
I400000
sg18
I67
sg19
g6
sg20
g6
sg21
I300000
sg22
I28798
sg23
I7
sg24
I0
sg25
g6
sg26
Fnan
sg27
I655037
sg28
I1386690
sg29
I28798
ssS'THE TRAVEL AGENCY IN THE PARK'
p307
(dp308
g3
g6
sg4
Fnan
sg5
g6
sg7
g6
sg8
I00
sg9
g6
sg11
g6
sg13
g6
sg14
g6
sg15
g32
sg16
g6
sg17
g6
sg18
g6
sg19
I362096
sg20
g6
sg21
g6
sg22
g6
sg23
g6
sg24
g6
sg25
g6
sg26
Fnan
sg27
g6
sg28
I362096
sg29
g6
ssS'NOLES JAMES L'
p309
(dp310
g3
g6
sg4
Fnan
sg5
I774401
sg7
g6
sg8
I00
sg9
g6
sg11
g6
sg13
g6
sg14
I-94556
sg15
g32
sg16
g6
sg17
g6
sg18
g6
sg19
g6
sg20
g6
sg21
g6
sg22
I368705
sg23
g6
sg24
g6
sg25
I463261
sg26
F1.26
sg27
g6
sg28
I774401
sg29
g6
ssS'KEAN STEVEN J'
p311
(dp312
g3
I12754
sg4
F0.1
sg5
g6
sg7
I41953
sg8
I00
sg9
g6
sg10
F0.0455816919891008
sg11
S'steven.kean@enron.com'
p313
sg13
I300000
sg14
g6
sg15
F0.21349869317890638
sg16
I3639
sg17
g6
sg18
I6759
sg19
I1231
sg20
g6
sg21
I1000000
sg22
I6153642
sg23
I140
sg24
I387
sg25
I4131594
sg26
F0.67
sg27
I404338
sg28
I1747522
sg29
I2022048
ssS'FOWLER PEGGY'
p314
(dp315
g3
I517
sg4
Fnan
sg5
g6
sg7
g6
sg8
I00
sg9
g6
sg10
F0.0003270014943968294
sg11
S'kulvinder.fowler@enron.com'
p316
sg13
g6
sg14
g6
sg15
F0.018083182640144666
sg16
I10
sg17
g6
sg18
I36
sg19
g6
sg20
g6
sg21
g6
sg22
I1884748
sg23
I0
sg24
I0
sg25
I560170
sg26
F0.3
sg27
g6
sg28
g6
sg29
I1324578
ssS'WASAFF GEORGE'
p317
(dp318
g3
I400
sg4
Fnan
sg5
I831299
sg7
g6
sg8
I00
sg9
I-583325
sg10
F0.7244780962682531
sg11
S'george.wasaff@enron.com'
p319
sg13
I200000
sg14
g6
sg15
F0.8511627906976744
sg16
I337
sg17
g6
sg18
I30
sg19
I1425
sg20
g6
sg21
I325000
sg22
I2056427
sg23
I22
sg24
I7
sg25
I388167
sg26
F0.19
sg27
I259996
sg28
I1034395
sg29
I1668260
ssS'WHITE JR THOMAS E'
p320
(dp321
g3
g6
sg4
F0.26
sg5
g6
sg7
I81353
sg8
I00
sg9
g6
sg11
S'thomas.white@enron.com'
p322
sg13
g6
sg14
g6
sg15
g32
sg16
g6
sg17
g6
sg18
g6
sg19
I1085463
sg20
g6
sg21
I450000
sg22
I15144123
sg23
g6
sg24
g6
sg25
I13847074
sg26
F0.91
sg27
I317543
sg28
I1934359
sg29
I1297049
ssS'CHRISTODOULOU DIOMEDES'
p323
(dp324
g3
g6
sg4
Fnan
sg5
g6
sg7
g6
sg8
I00
sg9
g6
sg11
S'diomedes.christodoulou@enron.com'
p325
sg13
g6
sg14
g6
sg15
g32
sg16
g6
sg17
g6
sg18
g6
sg19
g6
sg20
g6
sg21
g6
sg22
I6077885
sg23
g6
sg24
g6
sg25
I950730
sg26
F0.16
sg27
g6
sg28
g6
sg29
I5127155
ssS'ALLEN PHILLIP K'
p326
(dp327
g3
I2902
sg4
F0.07
sg5
I2869717
sg7
I13868
sg8
I00
sg9
I-3081055
sg10
F0.08881499190378042
sg11
S'phillip.allen@enron.com'
p328
sg13
I304805
sg14
I-126027
sg15
F0.2980184422209143
sg16
I1407
sg17
g6
sg18
I2195
sg19
I152
sg20
g6
sg21
I4175000
sg22
I1729541
sg23
I47
sg24
I65
sg25
I126027
sg26
F0.07
sg27
I201955
sg28
I4484442
sg29
I1729541
ssS'SHARP VICTORIA T'
p329
(dp330
g3
I3136
sg4
F0.47
sg5
I187469
sg7
I116337
sg8
I00
sg9
g6
sg10
F0.5870594426444128
sg11
S'vicki.sharp@enron.com'
p331
sg13
I422158
sg14
g6
sg15
F0.76619804400978
sg16
I2477
sg17
g6
sg18
I136
sg19
I2401
sg20
g6
sg21
I600000
sg22
I494136
sg23
I24
sg24
I6
sg25
I213063
sg26
F0.43
sg27
I248146
sg28
I1576511
sg29
I281073
ssS'JAEDICKE ROBERT'
p332
(dp333
g3
g6
sg4
Fnan
sg5
g6
sg7
g6
sg8
I00
sg9
I-25000
sg11
g6
sg13
g6
sg14
I-44093
sg15
g32
sg16
g6
sg17
g6
sg18
g6
sg19
g6
sg20
I108750
sg21
g6
sg22
I431750
sg23
g6
sg24
g6
sg25
I44093
sg26
F0.1
sg27
g6
sg28
I83750
sg29
I431750
ssS'WINOKUR JR. HERBERT S'
p334
(dp335
g3
g6
sg4
Fnan
sg5
g6
sg7
I1413
sg8
I00
sg9
I-25000
sg11
g6
sg13
g6
sg14
g6
sg15
g32
sg16
g6
sg17
g6
sg18
g6
sg19
g6
sg20
I108579
sg21
g6
sg22
g6
sg23
g6
sg24
g6
sg25
g6
sg26
Fnan
sg27
g6
sg28
I84992
sg29
g6
ssS'BROWN MICHAEL'
p336
(dp337
g3
I1486
sg4
Fnan
sg5
g6
sg7
I49288
sg8
I00
sg9
g6
sg10
F0.2575878243140605
sg11
S'michael.brown@enron.com'
p338
sg13
g6
sg14
g6
sg15
F0.5075311067452521
sg16
I761
sg17
g6
sg18
I41
sg19
g6
sg20
g6
sg21
g6
sg22
g6
sg23
I13
sg24
I1
sg25
g6
sg26
Fnan
sg27
g6
sg28
I49288
sg29
g6
ssS'BADUM JAMES P'
p339
(dp340
g3
g6
sg4
Fnan
sg5
I178980
sg7
I3486
sg8
I00
sg9
g6
sg11
g6
sg13
g6
sg14
g6
sg15
g32
sg16
g6
sg17
g6
sg18
g6
sg19
g6
sg20
g6
sg21
g6
sg22
I257817
sg23
g6
sg24
g6
sg25
g6
sg26
Fnan
sg27
g6
sg28
I182466
sg29
I257817
ssS'HUGHES JAMES A'
p341
(dp342
g3
I719
sg4
Fnan
sg5
g6
sg7
g6
sg8
I00
sg9
g6
sg10
F0.6977684657562755
sg11
S'james.hughes@enron.com'
p343
sg13
g6
sg14
g6
sg15
F0.8353253652058433
sg16
I589
sg17
g6
sg18
I34
sg19
g6
sg20
g6
sg21
g6
sg22
I1118394
sg23
I35
sg24
I5
sg25
I363428
sg26
F0.32
sg27
g6
sg28
g6
sg29
I754966
ssS'REYNOLDS LAWRENCE'
p344
(dp345
g3
g6
sg4
F0.11
sg5
I51365
sg7
I8409
sg8
I00
sg9
I-200000
sg11
g6
sg13
I156250
sg14
I-140264
sg15
g32
sg16
g6
sg17
g6
sg18
g6
sg19
I202052
sg20
g6
sg21
I100000
sg22
I4221891
sg23
g6
sg24
g6
sg25
I201483
sg26
F0.05
sg27
I76399
sg28
I394475
sg29
I4160672
ssS'DIMICHELE RICHARD G'
p346
(dp347
g3
g6
sg4
F0.14
sg5
g6
sg7
I35812
sg8
I00
sg9
g6
sg11
S'richard.dimichele@enron.com'
p348
sg13
I694862
sg14
g6
sg15
g32
sg16
g6
sg17
g6
sg18
g6
sg19
I374689
sg20
g6
sg21
I1000000
sg22
I8317782
sg23
g6
sg24
g6
sg25
I126027
sg26
F0.02
sg27
I262788
sg28
I2368151
sg29
I8191755
ssS'BHATNAGAR SANJAY'
p349
(dp350
g3
I523
sg4
Fnan
sg5
g6
sg7
g6
sg8
I00
sg9
g6
sg10
F0.7065742491073304
sg11
S'sanjay.bhatnagar@enron.com'
p351
sg13
g6
sg14
I15456290
sg15
F0.8405797101449275
sg16
I463
sg17
g6
sg18
I29
sg19
I137864
sg20
I137864
sg21
g6
sS'total_stock_value'
p352
S'NaN'
p353
sg23
I0
sg24
I1
sg25
I-2604490
sg26
Fnan
sg27
g6
sg28
I15456290
sg29
I2604490
ssS'CARTER REBECCA C'
p354
(dp355
g3
I312
sg4
Fnan
sg5
g6
sg7
g6
sg8
I00
sg9
I-159792
sg10
F0.5033620439731037
sg11
S'rebecca.carter@enron.com'
p356
sg13
I75000
sg14
I-307301
sg15
F0.709480122324159
sg16
I196
sg17
g6
sg18
I15
sg19
I540
sg20
g6
sg21
I300000
sg22
g6
sg23
I29
sg24
I7
sg25
I307301
sg26
Fnan
sg27
I261809
sg28
I477557
sg29
g6
ssS'BUCHANAN HAROLD G'
p357
(dp358
g3
I1088
sg4
F0.0
sg5
g6
sg7
I600
sg8
I00
sg9
g6
sg10
F0.00035952911880024653
sg11
S'john.buchanan@enron.com'
p359
sg13
I304805
sg14
g6
sg15
F0.018961253091508656
sg16
I23
sg17
g6
sg18
I125
sg19
I1215
sg20
g6
sg21
I500000
sg22
I1014505
sg23
I0
sg24
I0
sg25
I189041
sg26
F0.19
sg27
I248017
sg28
I1054637
sg29
I825464
ssS'YEAP SOON'
p360
(dp361
g3
g6
sg4
Fnan
sg5
g6
sg7
I55097
sg8
I00
sg9
g6
sg11
g6
sg13
g6
sg14
g6
sg15
g32
sg16
g6
sg17
g6
sg18
g6
sg19
g6
sg20
g6
sg21
g6
sg22
I192758
sg23
g6
sg24
g6
sg25
g6
sg26
Fnan
sg27
g6
sg28
I55097
sg29
I192758
ssS'MURRAY JULIA H'
p362
(dp363
g3
I2192
sg4
F0.25
sg5
g6
sg7
I57580
sg8
I00
sg9
g6
sg10
F0.033265063589978675
sg11
S'julia.murray@enron.com'
p364
sg13
I125000
sg14
g6
sg15
F0.1823871256146625
sg16
I395
sg17
g6
sg18
I45
sg19
I330
sg20
g6
sg21
I400000
sg22
I597461
sg23
I11
sg24
I2
sg25
I196983
sg26
F0.33
sg27
I229284
sg28
I812194
sg29
I400478
ssS'GARLAND C KEVIN'
p365
(dp366
g3
I209
sg4
F0.21
sg5
g6
sg7
I48405
sg8
I00
sg9
g6
sg10
F0.7221640706775609
sg11
S'kevin.garland@enron.com'
p367
sg13
I375304
sg14
g6
sg15
F0.849802371541502
sg16
I178
sg17
g6
sg18
I44
sg19
I60814
sg20
g6
sg21
I850000
sg22
I896153
sg23
I10
sg24
I27
sg25
I259907
sg26
F0.29
sg27
I231946
sg28
I1566469
sg29
I636246
ssS'DODSON KEITH'
p368
(dp369
g3
I176
sg4
F0.13
sg5
g6
sg7
I28164
sg8
I00
sg9
g6
sg10
F0.446786703601108
sg11
S'keith.dodson@enron.com'
p370
sg13
g6
sg14
g6
sg15
F0.6684210526315789
sg16
I114
sg17
g6
sg18
I14
sg19
I774
sg20
g6
sg21
I70000
sg22
g6
sg23
I10
sg24
I3
sg25
g6
sg26
Fnan
sg27
I221003
sg28
I319941
sg29
g6
ssS'YEAGER F SCOTT'
p371
(dp372
g3
g6
sg4
F0.34
sg5
g6
sg7
I53947
sg8
I01
sg9
g6
sg11
S'scott.yeager@enron.com'
p373
sg13
g6
sg14
g6
sg15
g32
sg16
g6
sg17
g6
sg18
g6
sg19
I147950
sg20
g6
sg21
g6
sg22
I11884758
sg23
g6
sg24
g6
sg25
I3576206
sg26
F0.3
sg27
I158403
sg28
I360300
sg29
I8308552
ssS'HIRKO JOSEPH'
p374
(dp375
g3
g6
sg4
Fnan
sg5
I10259
sg7
I77978
sg8
I01
sg9
g6
sg11
S'joe.hirko@enron.com'
p376
sg13
g6
sg14
g6
sg15
g32
sg16
g6
sg17
g6
sg18
g6
sg19
I2856
sg20
g6
sg21
g6
sg22
I30766064
sg23
g6
sg24
g6
sg25
g6
sg26
Fnan
sg27
g6
sg28
I91093
sg29
I30766064
ssS'DIETRICH JANET R'
p377
(dp378
g3
I2572
sg4
F0.01
sg5
g6
sg7
I3475
sg8
I00
sg9
g6
sg10
F0.710453859697763
sg11
S'janet.dietrich@enron.com'
p379
sg13
I556416
sg14
g6
sg15
F0.8428842504743833
sg16
I1902
sg17
g6
sg18
I63
sg19
I473
sg20
g6
sg21
I600000
sg22
I1865087
sg23
I305
sg24
I14
sg25
I315068
sg26
F0.17
sg27
I250100
sg28
I1410464
sg29
I1550019
ssS'DERRICK JR. JAMES V'
p380
(dp381
g3
I2181
sg4
F0.1
sg5
g6
sg7
I51124
sg8
I00
sg9
I-1284000
sg10
F0.23095956263549816
sg11
S'james.derrick@enron.com'
p382
sg13
I484000
sg14
I-1787380
sg15
F0.48058252427184467
sg16
I1401
sg17
g6
sg18
I909
sg19
I7482
sg20
g6
sg21
I800000
sg22
I8831913
sg23
I64
sg24
I20
sg25
I1787380
sg26
F0.2
sg27
I492375
sg28
I550981
sg29
I8831913
ssS'FREVERT MARK A'
p383
(dp384
g3
I3275
sg4
F0.08
sg5
I6426990
sg7
I86987
sg8
I00
sg9
I-3367011
sg10
F0.9585693198286831
sg11
S'mark.frevert@enron.com'
p385
sg13
I1617011
sg14
g6
sg15
F0.9790655339805825
sg16
I2979
sg17
I2000000
sg18
I21
sg19
I7427621
sg20
g6
sg21
I2000000
sg22
I14622185
sg23
I242
sg24
I6
sg25
I4188667
sg26
F0.29
sg27
I1060932
sg28
I17252530
sg29
I10433518
ssS'PAI LOU L'
p386
(dp387
g3
g6
sg4
F0.12
sg5
g6
sg7
I32047
sg8
I00
sg9
g6
sg11
S'lou.pai@enron.com'
p388
sg13
g6
sg14
g6
sg15
g32
sg16
g6
sg17
g6
sg18
g6
sg19
I1829457
sg20
g6
sg21
I1000000
sg22
I23817930
sg23
g6
sg24
g6
sg25
I8453763
sg26
F0.35
sg27
I261879
sg28
I3123383
sg29
I15364167
ssS'BAY FRANKLIN R'
p389
(dp390
g3
g6
sg4
F0.54
sg5
I260455
sg7
I129142
sg8
I00
sg9
I-201641
sg11
S'frank.bay@enron.com'
p391
sg13
g6
sg14
I-82782
sg15
g32
sg16
g6
sg17
g6
sg18
g6
sg19
I69
sg20
g6
sg21
I400000
sg22
I63014
sg23
g6
sg24
g6
sg25
I145796
sg26
F2.31
sg27
I239671
sg28
I827696
sg29
g6
ssS'HAYSLETT RODERICK J'
p392
(dp393
g3
I2649
sg4
Fnan
sg5
g6
sg7
g6
sg8
I00
sg9
g6
sg10
F0.030131719473122105
sg11
S'rod.hayslett@enron.com'
p394
sg13
g6
sg14
g6
sg15
F0.17358490566037735
sg16
I571
sg17
g6
sg18
I1061
sg19
g6
sg20
g6
sg21
g6
sg22
I346663
sg23
I35
sg24
I38
sg25
I346663
sg26
F1.0
sg27
g6
sg28
g6
sg29
g6
ssS'FUGH JOHN L'
p395
(dp396
g3
g6
sg4
Fnan
sg5
I50591
sg7
g6
sg8
I00
sg9
g6
sg11
g6
sg13
g6
sg14
g6
sg15
g32
sg16
g6
sg17
g6
sg18
g6
sg19
g6
sg20
g6
sg21
g6
sg22
I176378
sg23
g6
sg24
g6
sg25
g6
sg26
Fnan
sg27
g6
sg28
I50591
sg29
I176378
ssS'FALLON JAMES B'
p397
(dp398
g3
I1755
sg4
F0.31
sg5
g6
sg7
I95924
sg8
I00
sg9
g6
sg10
F0.8457968288094598
sg11
S'jim.fallon@enron.com'
p399
sg13
I374347
sg14
g6
sg15
F0.919672131147541
sg16
I1604
sg17
g6
sg18
I75
sg19
I401481
sg20
g6
sg21
I2500000
sg22
I2332399
sg23
I42
sg24
I37
sg25
I1392142
sg26
F0.6
sg27
I304588
sg28
I3676340
sg29
I940257
ssS'KOENIG MARK E'
p400
(dp401
g3
I2374
sg4
F0.41
sg5
g6
sg7
I127017
sg8
I01
sg9
g6
sg10
F0.9227042320033393
sg11
S'mark.koenig@enron.com'
p402
sg13
I300000
sg14
g6
sg15
F0.9605749486652977
sg16
I2271
sg17
g6
sg18
I61
sg19
I150458
sg20
g6
sg21
I700000
sg22
I1920055
sg23
I53
sg24
I15
sg25
I1248318
sg26
F0.65
sg27
I309946
sg28
I1587421
sg29
I671737
ssS'SAVAGE FRANK'
p403
(dp404
g3
g6
sg4
Fnan
sg5
g6
sg7
g6
sg8
I00
sg9
I-121284
sg11
g6
sg13
g6
sg14
g6
sg15
g32
sg16
g6
sg17
g6
sg18
g6
sg19
g6
sg20
I125034
sg21
g6
sg22
g6
sg23
g6
sg24
g6
sg25
g6
sg26
Fnan
sg27
g6
sg28
I3750
sg29
g6
ssS'IZZO LAWRENCE L'
p405
(dp406
g3
I496
sg4
F0.33
sg5
g6
sg7
I28093
sg8
I00
sg9
g6
sg10
F0.8328777453105854
sg11
S'larry.izzo@enron.com'
p407
sg13
I312500
sg14
g6
sg15
F0.912621359223301
sg16
I437
sg17
g6
sg18
I19
sg19
I1553729
sg20
g6
sg21
g6
sg22
I5819980
sg23
I28
sg24
I5
sg25
I3654808
sg26
F0.63
sg27
I85274
sg28
I1979596
sg29
I2165172
ssS'TILNEY ELIZABETH A'
p408
(dp409
g3
I460
sg4
Fnan
sg5
g6
sg7
g6
sg8
I00
sg9
I-575000
sg10
F0.6973470303912552
sg11
S'elizabeth.tilney@enron.com'
p410
sg13
I275000
sg14
g6
sg15
F0.8350730688935282
sg16
I379
sg17
g6
sg18
I19
sg19
I152055
sg20
g6
sg21
I300000
sg22
I1168042
sg23
I10
sg24
I11
sg25
I576792
sg26
F0.49
sg27
I247338
sg28
I399393
sg29
I591250
ssS'MARTIN AMANDA K'
p411
(dp412
g3
I1522
sg4
F0.02
sg5
I85430
sg7
I8211
sg8
I00
sg9
g6
sg10
F0.07663290225391463
sg11
S'a..martin@enron.com'
p413
sg13
I5145434
sg14
g6
sg15
F0.2768264840182648
sg16
I477
sg17
g6
sg18
I230
sg19
I2818454
sg20
g6
sg21
g6
sg22
I2070306
sg23
I8
sg24
I0
sg25
g6
sg26
Fnan
sg27
I349487
sg28
I8407016
sg29
I2070306
ssS'BUY RICHARD B'
p414
(dp415
g3
I3523
sg4
Fnan
sg5
I649584
sg7
g6
sg8
I00
sg9
I-694862
sg10
F0.3129737395471662
sg11
S'rick.buy@enron.com'
p416
sg13
I769862
sg14
g6
sg15
F0.5594405594405595
sg16
I2333
sg17
g6
sg18
I1053
sg19
I400572
sg20
g6
sg21
I900000
sg22
I3444470
sg23
I156
sg24
I71
sg25
I901657
sg26
F0.26
sg27
I330546
sg28
I2355702
sg29
I2542813
ssS'GRAMM WENDY L'
p417
(dp418
g3
g6
sg4
Fnan
sg5
g6
sg7
g6
sg8
I00
sg9
g6
sg11
g6
sg13
g6
sg14
g6
sg15
g32
sg16
g6
sg17
g6
sg18
g6
sg19
g6
sg20
I119292
sg21
g6
sg22
g6
sg23
g6
sg24
g6
sg25
g6
sg26
Fnan
sg27
g6
sg28
I119292
sg29
g6
ssS'CAUSEY RICHARD A'
p419
(dp420
g3
I1892
sg4
F0.07
sg5
g6
sg7
I30674
sg8
I01
sg9
I-235000
sg10
F0.7270176014159063
sg11
S'richard.causey@enron.com'
p421
sg13
I350000
sg14
g6
sg15
F0.8526532715095312
sg16
I1585
sg17
g6
sg18
I49
sg19
I307895
sg20
g6
sg21
I1000000
sg22
I2502063
sg23
I58
sg24
I12
sg25
I2502063
sg26
F1.0
sg27
I415189
sg28
I1868758
sg29
g6
ssS'TAYLOR MITCHELL S'
p422
(dp423
g3
I533
sg4
Fnan
sg5
I227449
sg7
g6
sg8
I00
sg9
g6
sg10
F0.28495079849545973
sg11
S'mitchell.taylor@enron.com'
p424
sg13
g6
sg14
g6
sg15
F0.5338078291814946
sg16
I300
sg17
g6
sg18
I29
sg19
g6
sg20
g6
sg21
I600000
sg22
I3745048
sg23
I0
sg24
I0
sg25
I563798
sg26
F0.15
sg27
I265214
sg28
I1092663
sg29
I3181250
ssS'DONAHUE JR JEFFREY M'
p425
(dp426
g3
I865
sg4
F0.35
sg5
g6
sg7
I96268
sg8
I00
sg9
I-300000
sg10
F1.1983708051537365
sg11
S'jeff.donahue@enron.com'
p427
sg13
g6
sg14
g6
sg15
F1.0947012401352876
sg16
I772
sg17
g6
sg18
I22
sg19
I891
sg20
g6
sg21
I800000
sg22
I1080988
sg23
I188
sg24
I11
sg25
I315068
sg26
F0.29
sg27
I278601
sg28
I875760
sg29
I765920
ssS'GLISAN JR BEN F'
p428
(dp429
g3
I873
sg4
F0.46
sg5
g6
sg7
I125978
sg8
I01
sg9
g6
sg10
F1.0990774634610496
sg11
S'ben.glisan@enron.com'
p430
sg13
I71023
sg14
g6
sg15
F1.048368953880765
sg16
I874
sg17
g6
sg18
I16
sg19
I200308
sg20
g6
sg21
I600000
sg22
I778546
sg23
I52
sg24
I6
sg25
I393818
sg26
F0.51
sg27
I274975
sg28
I1272284
sg29
I384728
ss.